target datalayout = "e-m:e-p270:32:32-p271:32:32-p272:64:64-i64:64-i128:128-f80:128-n8:16:32:64-S128"
target triple = "x86_64-pc-linux-gnu"

; Function Attrs: nounwind uwtable
define hidden ptr @X509at_get_attr(ptr noundef %0, i32 noundef %1) #0 {
  %3 = alloca ptr, align 8
  %4 = alloca ptr, align 8
  %5 = alloca i32, align 4
  store ptr %0, ptr %4, align 8, !tbaa !6
  store i32 %1, ptr %5, align 4, !tbaa !11
  %6 = load ptr, ptr %4, align 8, !tbaa !6
  %7 = icmp eq ptr %6, null
  br i1 %7, label %17, label %8

8:                                                ; preds = %2
  %9 = load i32, ptr %5, align 4, !tbaa !11
  %10 = icmp slt i32 %9, 0
  br i1 %10, label %17, label %11

11:                                               ; preds = %8
  %12 = load ptr, ptr %4, align 8, !tbaa !6
  %13 = call i64 @sk_num(ptr noundef %12)
  %14 = load i32, ptr %5, align 4, !tbaa !11
  %15 = sext i32 %14 to i64
  %16 = icmp ule i64 %13, %15
  br i1 %16, label %17, label %18

17:                                               ; preds = %11, %8, %2
  store ptr null, ptr %3, align 8
  br label %23

18:                                               ; preds = %11
  %19 = load ptr, ptr %4, align 8, !tbaa !6
  %20 = load i32, ptr %5, align 4, !tbaa !11
  %21 = sext i32 %20 to i64
  %22 = call ptr @sk_value(ptr noundef %19, i64 noundef %21)
  store ptr %22, ptr %3, align 8
  br label %23

23:                                               ; preds = %18, %17
  %24 = load ptr, ptr %3, align 8
  ret ptr %24
}