; Function Attrs: nounwind uwtable
define hidden ptr @X509at_get_attr(ptr noundef %0, i32 noundef %1) local_unnamed_addr #0 {
  %3 = icmp eq ptr %0, null
  %4 = icmp slt i32 %1, 0
  %or.cond = or i1 %3, %4
  br i1 %or.cond, label %10, label %5

5:                                                ; preds = %2
  %6 = tail call i64 @sk_num(ptr noundef nonnull %0) #4
  %7 = zext nneg i32 %1 to i64
  %.not = icmp ugt i64 %6, %7
  br i1 %.not, label %8, label %10

8:                                                ; preds = %5
  %9 = tail call ptr @sk_value(ptr noundef nonnull %0, i64 noundef %7) #4
  br label %10

10:                                               ; preds = %2, %5, %8
  %.0 = phi ptr [ %9, %8 ], [ null, %5 ], [ null, %2 ]
  ret ptr %.0
}